{
   <insert_a_suppression_name_here>
   Memcheck:Leak
   match-leak-kinds: reachable
   fun:_Znwm
   fun:_ZN9__gnu_cxx13new_allocatorINSt8__detail10_Hash_nodeISt4pairIKjPFvPvEELb0EEEE8allocateEmPKv
   fun:_ZNSt16allocator_traitsISaINSt8__detail10_Hash_nodeISt4pairIKjPFvPvEELb0EEEEE8allocateERS9_m
   fun:_ZNSt8__detail16_Hashtable_allocISaINS_10_Hash_nodeISt4pairIKjPFvPvEELb0EEEEE16_M_allocate_nodeIJRKSt21piecewise_construct_tSt5tupleIJRS3_EESF_IJEEEEEPS8_DpOT_
   fun:_ZNSt10_HashtableIjSt4pairIKjPFvPvEESaIS5_ENSt8__detail10_Select1stESt8equal_toIjESt4hashIjENS7_18_Mod_range_hashingENS7_20_Default_ranged_hashENS7_20_Prime_rehash_policyENS7_17_Hashtable_traitsILb0ELb0ELb1EEEE12_Scoped_nodeC1IJRKSt21piecewise_construct_tSt5tupleIJRS1_EESO_IJEEEEEPNS7_16_Hashtable_allocISaINS7_10_Hash_nodeIS5_Lb0EEEEEEDpOT_
   fun:_ZNSt8__detail9_Map_baseIjSt4pairIKjPFvPvEESaIS6_ENS_10_Select1stESt8equal_toIjESt4hashIjENS_18_Mod_range_hashingENS_20_Default_ranged_hashENS_20_Prime_rehash_policyENS_17_Hashtable_traitsILb0ELb0ELb1EEELb1EEixERS2_
   fun:_ZNSt13unordered_mapIjPFvPvESt4hashIjESt8equal_toIjESaISt4pairIKjS2_EEEixERS8_
   fun:_ZN7rocksdb14ThreadLocalPtr10StaticMeta10SetHandlerEjPFvPvE
   fun:_ZN7rocksdb14ThreadLocalPtrC1EPFvPvE
   fun:_ZN7rocksdb16ColumnFamilyDataC1EjRKNSt7__cxx1112basic_stringIcSt11char_traitsIcESaIcEEEPNS_7VersionEPNS_5CacheEPNS_18WriteBufferManagerERKNS_19ColumnFamilyOptionsERKNS_18ImmutableDBOptionsERKNS_11FileOptionsEPNS_15ColumnFamilySetEPNS_16BlockCacheTracerERKSt10shared_ptrINS_8IOTracerEES8_
   fun:_ZN7rocksdb15ColumnFamilySetC1ERKNSt7__cxx1112basic_stringIcSt11char_traitsIcESaIcEEEPKNS_18ImmutableDBOptionsERKNS_11FileOptionsEPNS_5CacheEPNS_18WriteBufferManagerEPNS_15WriteControllerEPNS_16BlockCacheTracerERKSt10shared_ptrINS_8IOTracerEES8_
   fun:_ZN7rocksdb10VersionSetC1ERKNSt7__cxx1112basic_stringIcSt11char_traitsIcESaIcEEEPKNS_18ImmutableDBOptionsERKNS_11FileOptionsEPNS_5CacheEPNS_18WriteBufferManagerEPNS_15WriteControllerEPNS_16BlockCacheTracerERKSt10shared_ptrINS_8IOTracerEES8_
   fun:_ZN7rocksdb6DBImplC1ERKNS_9DBOptionsERKNSt7__cxx1112basic_stringIcSt11char_traitsIcESaIcEEEbbb
   fun:_ZN7rocksdb6DBImpl4OpenERKNS_9DBOptionsERKNSt7__cxx1112basic_stringIcSt11char_traitsIcESaIcEEERKSt6vectorINS_22ColumnFamilyDescriptorESaISD_EEPSC_IPNS_18ColumnFamilyHandleESaISJ_EEPPNS_2DBEbb
   fun:_ZN7rocksdb2DB4OpenERKNS_9DBOptionsERKNSt7__cxx1112basic_stringIcSt11char_traitsIcESaIcEEERKSt6vectorINS_22ColumnFamilyDescriptorESaISD_EEPSC_IPNS_18ColumnFamilyHandleESaISJ_EEPPS0_
   fun:_ZN7rocksdb2DB4OpenERKNS_7OptionsERKNSt7__cxx1112basic_stringIcSt11char_traitsIcESaIcEEEPPS0_
   fun:rocksdb_open
   fun:tsdbOpenRocksCache
   fun:tsdbOpenCache
   fun:tsdbOpen
}
{
   <insert_a_suppression_name_here>
   Memcheck:Leak
   match-leak-kinds: reachable
   fun:_Znwm
   fun:_ZN9__gnu_cxx13new_allocatorINSt8__detail10_Hash_nodeISt4pairIKjPFvPvEELb0EEEE8allocateEmPKv
   fun:_ZNSt16allocator_traitsISaINSt8__detail10_Hash_nodeISt4pairIKjPFvPvEELb0EEEEE8allocateERS9_m
   fun:_ZNSt8__detail16_Hashtable_allocISaINS_10_Hash_nodeISt4pairIKjPFvPvEELb0EEEEE16_M_allocate_nodeIJRKSt21piecewise_construct_tSt5tupleIJRS3_EESF_IJEEEEEPS8_DpOT_
   fun:_ZNSt10_HashtableIjSt4pairIKjPFvPvEESaIS5_ENSt8__detail10_Select1stESt8equal_toIjESt4hashIjENS7_18_Mod_range_hashingENS7_20_Default_ranged_hashENS7_20_Prime_rehash_policyENS7_17_Hashtable_traitsILb0ELb0ELb1EEEE12_Scoped_nodeC1IJRKSt21piecewise_construct_tSt5tupleIJRS1_EESO_IJEEEEEPNS7_16_Hashtable_allocISaINS7_10_Hash_nodeIS5_Lb0EEEEEEDpOT_
   fun:_ZNSt8__detail9_Map_baseIjSt4pairIKjPFvPvEESaIS6_ENS_10_Select1stESt8equal_toIjESt4hashIjENS_18_Mod_range_hashingENS_20_Default_ranged_hashENS_20_Prime_rehash_policyENS_17_Hashtable_traitsILb0ELb0ELb1EEELb1EEixERS2_
   fun:_ZNSt13unordered_mapIjPFvPvESt4hashIjESt8equal_toIjESaISt4pairIKjS2_EEEixERS8_
   fun:_ZN7rocksdb14ThreadLocalPtr10StaticMeta10SetHandlerEjPFvPvE
   fun:_ZN7rocksdb14ThreadLocalPtrC1EPFvPvE
   fun:_ZN7rocksdb16ColumnFamilyDataC1EjRKNSt7__cxx1112basic_stringIcSt11char_traitsIcESaIcEEEPNS_7VersionEPNS_5CacheEPNS_18WriteBufferManagerERKNS_19ColumnFamilyOptionsERKNS_18ImmutableDBOptionsERKNS_11FileOptionsEPNS_15ColumnFamilySetEPNS_16BlockCacheTracerERKSt10shared_ptrINS_8IOTracerEES8_
   fun:_ZN7rocksdb15ColumnFamilySet18CreateColumnFamilyERKNSt7__cxx1112basic_stringIcSt11char_traitsIcESaIcEEEjPNS_7VersionERKNS_19ColumnFamilyOptionsE
   fun:_ZN7rocksdb10VersionSet18CreateColumnFamilyERKNS_19ColumnFamilyOptionsEPKNS_11VersionEditE
   fun:_ZN7rocksdb18VersionEditHandler15CreateCfAndInitERKNS_19ColumnFamilyOptionsERKNS_11VersionEditE
   fun:_ZN7rocksdb18VersionEditHandler10InitializeEv
   fun:_ZN7rocksdb22VersionEditHandlerBase7IterateERNS_3log6ReaderEPNS_6StatusE
   fun:_ZN7rocksdb10VersionSet7RecoverERKSt6vectorINS_22ColumnFamilyDescriptorESaIS2_EEbPNSt7__cxx1112basic_stringIcSt11char_traitsIcESaIcEEE
   fun:_ZN7rocksdb6DBImpl7RecoverERKSt6vectorINS_22ColumnFamilyDescriptorESaIS2_EEbbbPm
   fun:_ZN7rocksdb6DBImpl4OpenERKNS_9DBOptionsERKNSt7__cxx1112basic_stringIcSt11char_traitsIcESaIcEEERKSt6vectorINS_22ColumnFamilyDescriptorESaISD_EEPSC_IPNS_18ColumnFamilyHandleESaISJ_EEPPNS_2DBEbb
   fun:_ZN7rocksdb2DB4OpenERKNS_9DBOptionsERKNSt7__cxx1112basic_stringIcSt11char_traitsIcESaIcEEERKSt6vectorINS_22ColumnFamilyDescriptorESaISD_EEPSC_IPNS_18ColumnFamilyHandleESaISJ_EEPPS0_
   fun:_ZN7rocksdb2DB4OpenERKNS_7OptionsERKNSt7__cxx1112basic_stringIcSt11char_traitsIcESaIcEEEPPS0_
}
{
   <insert_a_suppression_name_here>
   Memcheck:Leak
   match-leak-kinds: reachable
   fun:calloc
   fun:__cxa_thread_atexit_impl
   fun:__cxa_thread_atexit
   fun:__tls_init
   fun:_ZTWN7rocksdb12perf_contextE
   fun:_ZN7rocksdb17InstrumentedMutex4LockEv
   fun:_ZN7rocksdb21InstrumentedMutexLockC1EPNS_17InstrumentedMutexE
   fun:_ZN7rocksdb5Timer8ShutdownEv
   fun:_ZN7rocksdb5TimerD1Ev
   fun:_ZNKSt14default_deleteIN7rocksdb5TimerEEclEPS1_
   fun:_ZNSt10unique_ptrIN7rocksdb5TimerESt14default_deleteIS1_EED1Ev
   fun:_ZN7rocksdb21PeriodicWorkSchedulerD1Ev
   fun:__run_exit_handlers
   fun:exit
   fun:(below main)
}
{
   <insert_a_suppression_name_here>
   Memcheck:Leak
   match-leak-kinds: reachable
   fun:_Znwm
   fun:_ZN7rocksdb24CacheEntryStatsCollectorINS_13InternalStats19CacheEntryRoleStatsEE9GetSharedEPNS_5CacheEPNS_11SystemClockEPSt10shared_ptrIS3_E
   fun:_ZN7rocksdb13InternalStatsC1EiPNS_11SystemClockEPNS_16ColumnFamilyDataE
   fun:_ZN7rocksdb16ColumnFamilyDataC1EjRKNSt7__cxx1112basic_stringIcSt11char_traitsIcESaIcEEEPNS_7VersionEPNS_5CacheEPNS_18WriteBufferManagerERKNS_19ColumnFamilyOptionsERKNS_18ImmutableDBOptionsERKNS_11FileOptionsEPNS_15ColumnFamilySetEPNS_16BlockCacheTracerERKSt10shared_ptrINS_8IOTracerEES8_
   fun:_ZN7rocksdb15ColumnFamilySet18CreateColumnFamilyERKNSt7__cxx1112basic_stringIcSt11char_traitsIcESaIcEEEjPNS_7VersionERKNS_19ColumnFamilyOptionsE
   fun:_ZN7rocksdb10VersionSet18CreateColumnFamilyERKNS_19ColumnFamilyOptionsEPKNS_11VersionEditE
   fun:_ZN7rocksdb18VersionEditHandler15CreateCfAndInitERKNS_19ColumnFamilyOptionsERKNS_11VersionEditE
   fun:_ZN7rocksdb18VersionEditHandler10InitializeEv
   fun:_ZN7rocksdb22VersionEditHandlerBase7IterateERNS_3log6ReaderEPNS_6StatusE
   fun:_ZN7rocksdb10VersionSet7RecoverERKSt6vectorINS_22ColumnFamilyDescriptorESaIS2_EEbPNSt7__cxx1112basic_stringIcSt11char_traitsIcESaIcEEE
   fun:_ZN7rocksdb6DBImpl7RecoverERKSt6vectorINS_22ColumnFamilyDescriptorESaIS2_EEbbbPm
   fun:_ZN7rocksdb6DBImpl4OpenERKNS_9DBOptionsERKNSt7__cxx1112basic_stringIcSt11char_traitsIcESaIcEEERKSt6vectorINS_22ColumnFamilyDescriptorESaISD_EEPSC_IPNS_18ColumnFamilyHandleESaISJ_EEPPNS_2DBEbb
   fun:_ZN7rocksdb2DB4OpenERKNS_9DBOptionsERKNSt7__cxx1112basic_stringIcSt11char_traitsIcESaIcEEERKSt6vectorINS_22ColumnFamilyDescriptorESaISD_EEPSC_IPNS_18ColumnFamilyHandleESaISJ_EEPPS0_
   fun:_ZN7rocksdb2DB4OpenERKNS_7OptionsERKNSt7__cxx1112basic_stringIcSt11char_traitsIcESaIcEEEPPS0_
   fun:rocksdb_open
   fun:tsdbOpenRocksCache
   fun:tsdbOpenCache
   fun:tsdbOpen
   fun:vnodeOpen
   fun:vmProcessCreateVnodeReq
}
{
   <insert_a_suppression_name_here>
   Memcheck:Leak
   match-leak-kinds: reachable
   fun:_Znwm
   fun:_ZN7rocksdb12_GLOBAL__N_111GetRegistryEv
   fun:_ZN7rocksdb23CopyCacheDeleterRoleMapEv
   fun:_ZN7rocksdb13InternalStats19CacheEntryRoleStats15BeginCollectionEPNS_5CacheEPNS_11SystemClockEm
   fun:_ZN7rocksdb24CacheEntryStatsCollectorINS_13InternalStats19CacheEntryRoleStatsEE12CollectStatsEii
   fun:_ZN7rocksdb13InternalStats22CollectCacheEntryStatsEb
   fun:_ZN7rocksdb6DBImpl9DumpStatsEv
   fun:_ZZN7rocksdb21PeriodicWorkScheduler8RegisterEPNS_6DBImplEjjENKUlvE_clEv
   fun:_ZSt13__invoke_implIvRZN7rocksdb21PeriodicWorkScheduler8RegisterEPNS0_6DBImplEjjEUlvE_JEET_St14__invoke_otherOT0_DpOT1_
   fun:_ZSt10__invoke_rIvRZN7rocksdb21PeriodicWorkScheduler8RegisterEPNS0_6DBImplEjjEUlvE_JEENSt9enable_ifIXsrSt6__and_IJSt7is_voidIT_ESt14__is_invocableIT0_JDpT1_EEEE5valueES9_E4typeEOSC_DpOSD_
   fun:_ZNSt17_Function_handlerIFvvEZN7rocksdb21PeriodicWorkScheduler8RegisterEPNS1_6DBImplEjjEUlvE_E9_M_invokeERKSt9_Any_data
   fun:_ZNKSt8functionIFvvEEclEv
   fun:_ZN7rocksdb5Timer3RunEv
   fun:_ZSt13__invoke_implIvMN7rocksdb5TimerEFvvEPS1_JEET_St21__invoke_memfun_derefOT0_OT1_DpOT2_
   fun:_ZSt8__invokeIMN7rocksdb5TimerEFvvEJPS1_EENSt15__invoke_resultIT_JDpT0_EE4typeEOS6_DpOS7_
   fun:_ZNSt6thread8_InvokerISt5tupleIJMN7rocksdb5TimerEFvvEPS3_EEE9_M_invokeIJLm0ELm1EEEEvSt12_Index_tupleIJXspT_EEE
   fun:_ZNSt6thread8_InvokerISt5tupleIJMN7rocksdb5TimerEFvvEPS3_EEEclEv
   fun:_ZNSt6thread11_State_implINS_8_InvokerISt5tupleIJMN7rocksdb5TimerEFvvEPS4_EEEEE6_M_runEv
   obj:/usr/lib/x86_64-linux-gnu/libstdc++.so.6.0.28
   fun:start_thread
}
{
   <insert_a_suppression_name_here>
   Memcheck:Leak
   match-leak-kinds: reachable
   fun:_Znwm
   fun:_ZN9__gnu_cxx13new_allocatorIPNSt8__detail15_Hash_node_baseEE8allocateEmPKv
   fun:_ZNSt16allocator_traitsISaIPNSt8__detail15_Hash_node_baseEEE8allocateERS3_m
   fun:_ZNSt8__detail16_Hashtable_allocISaINS_10_Hash_nodeIPN7rocksdb16ThreadStatusDataELb0EEEEE19_M_allocate_bucketsEm
   fun:_ZNSt10_HashtableIPN7rocksdb16ThreadStatusDataES2_SaIS2_ENSt8__detail9_IdentityESt8equal_toIS2_ESt4hashIS2_ENS4_18_Mod_range_hashingENS4_20_Default_ranged_hashENS4_20_Prime_rehash_policyENS4_17_Hashtable_traitsILb0ELb1ELb1EEEE19_M_allocate_bucketsEm
   fun:_ZNSt10_HashtableIPN7rocksdb16ThreadStatusDataES2_SaIS2_ENSt8__detail9_IdentityESt8equal_toIS2_ESt4hashIS2_ENS4_18_Mod_range_hashingENS4_20_Default_ranged_hashENS4_20_Prime_rehash_policyENS4_17_Hashtable_traitsILb0ELb1ELb1EEEE13_M_rehash_auxEmSt17integral_constantIbLb1EE
   fun:_ZNSt10_HashtableIPN7rocksdb16ThreadStatusDataES2_SaIS2_ENSt8__detail9_IdentityESt8equal_toIS2_ESt4hashIS2_ENS4_18_Mod_range_hashingENS4_20_Default_ranged_hashENS4_20_Prime_rehash_policyENS4_17_Hashtable_traitsILb0ELb1ELb1EEEE9_M_rehashEmRKm
   fun:_ZNSt10_HashtableIPN7rocksdb16ThreadStatusDataES2_SaIS2_ENSt8__detail9_IdentityESt8equal_toIS2_ESt4hashIS2_ENS4_18_Mod_range_hashingENS4_20_Default_ranged_hashENS4_20_Prime_rehash_policyENS4_17_Hashtable_traitsILb0ELb1ELb1EEEE21_M_insert_unique_nodeERKS2_mmPNS4_10_Hash_nodeIS2_Lb0EEEm
   fun:_ZNSt10_HashtableIPN7rocksdb16ThreadStatusDataES2_SaIS2_ENSt8__detail9_IdentityESt8equal_toIS2_ESt4hashIS2_ENS4_18_Mod_range_hashingENS4_20_Default_ranged_hashENS4_20_Prime_rehash_policyENS4_17_Hashtable_traitsILb0ELb1ELb1EEEE9_M_insertIRKS2_NS4_10_AllocNodeISaINS4_10_Hash_nodeIS2_Lb0EEEEEEEESt4pairINS4_14_Node_iteratorIS2_Lb1ELb0EEEbEOT_RKT0_St17integral_constantIbLb1EEm
   fun:_ZNSt8__detail12_Insert_baseIPN7rocksdb16ThreadStatusDataES3_SaIS3_ENS_9_IdentityESt8equal_toIS3_ESt4hashIS3_ENS_18_Mod_range_hashingENS_20_Default_ranged_hashENS_20_Prime_rehash_policyENS_17_Hashtable_traitsILb0ELb1ELb1EEEE6insertERKS3_
   fun:_ZNSt13unordered_setIPN7rocksdb16ThreadStatusDataESt4hashIS2_ESt8equal_toIS2_ESaIS2_EE6insertERKS2_
   fun:_ZN7rocksdb19ThreadStatusUpdater14RegisterThreadENS_12ThreadStatus10ThreadTypeEm
   fun:_ZN7rocksdb16ThreadStatusUtil14RegisterThreadEPKNS_3EnvENS_12ThreadStatus10ThreadTypeE
   fun:_ZN7rocksdb14ThreadPoolImpl4Impl15BGThreadWrapperEPv
   fun:_ZSt13__invoke_implIvPFvPvEJPN7rocksdb16BGThreadMetadataEEET_St14__invoke_otherOT0_DpOT1_
   fun:_ZSt8__invokeIPFvPvEJPN7rocksdb16BGThreadMetadataEEENSt15__invoke_resultIT_JDpT0_EE4typeEOS7_DpOS8_
   fun:_ZNSt6thread8_InvokerISt5tupleIJPFvPvEPN7rocksdb16BGThreadMetadataEEEE9_M_invokeIJLm0ELm1EEEEvSt12_Index_tupleIJXspT_EEE
   fun:_ZNSt6thread8_InvokerISt5tupleIJPFvPvEPN7rocksdb16BGThreadMetadataEEEEclEv
   fun:_ZNSt6thread11_State_implINS_8_InvokerISt5tupleIJPFvPvEPN7rocksdb16BGThreadMetadataEEEEEE6_M_runEv
   obj:/usr/lib/x86_64-linux-gnu/libstdc++.so.6.0.28
}
{
   <insert_a_suppression_name_here>
   Memcheck:Leak
   match-leak-kinds: reachable
   fun:_Znwm
   fun:_ZN9__gnu_cxx13new_allocatorIPNSt8__detail15_Hash_node_baseEE8allocateEmPKv
   fun:_ZNSt16allocator_traitsISaIPNSt8__detail15_Hash_node_baseEEE8allocateERS3_m
   fun:_ZNSt8__detail16_Hashtable_allocISaINS_10_Hash_nodeISt4pairIKjPFvPvEELb0EEEEE19_M_allocate_bucketsEm
   fun:_ZNSt10_HashtableIjSt4pairIKjPFvPvEESaIS5_ENSt8__detail10_Select1stESt8equal_toIjESt4hashIjENS7_18_Mod_range_hashingENS7_20_Default_ranged_hashENS7_20_Prime_rehash_policyENS7_17_Hashtable_traitsILb0ELb0ELb1EEEE19_M_allocate_bucketsEm
   fun:_ZNSt10_HashtableIjSt4pairIKjPFvPvEESaIS5_ENSt8__detail10_Select1stESt8equal_toIjESt4hashIjENS7_18_Mod_range_hashingENS7_20_Default_ranged_hashENS7_20_Prime_rehash_policyENS7_17_Hashtable_traitsILb0ELb0ELb1EEEE13_M_rehash_auxEmSt17integral_constantIbLb1EE
   fun:_ZNSt10_HashtableIjSt4pairIKjPFvPvEESaIS5_ENSt8__detail10_Select1stESt8equal_toIjESt4hashIjENS7_18_Mod_range_hashingENS7_20_Default_ranged_hashENS7_20_Prime_rehash_policyENS7_17_Hashtable_traitsILb0ELb0ELb1EEEE9_M_rehashEmRKm
   fun:_ZNSt10_HashtableIjSt4pairIKjPFvPvEESaIS5_ENSt8__detail10_Select1stESt8equal_toIjESt4hashIjENS7_18_Mod_range_hashingENS7_20_Default_ranged_hashENS7_20_Prime_rehash_policyENS7_17_Hashtable_traitsILb0ELb0ELb1EEEE21_M_insert_unique_nodeERS1_mmPNS7_10_Hash_nodeIS5_Lb0EEEm
   fun:_ZNSt8__detail9_Map_baseIjSt4pairIKjPFvPvEESaIS6_ENS_10_Select1stESt8equal_toIjESt4hashIjENS_18_Mod_range_hashingENS_20_Default_ranged_hashENS_20_Prime_rehash_policyENS_17_Hashtable_traitsILb0ELb0ELb1EEELb1EEixERS2_
   fun:_ZNSt13unordered_mapIjPFvPvESt4hashIjESt8equal_toIjESaISt4pairIKjS2_EEEixERS8_
   fun:_ZN7rocksdb14ThreadLocalPtr10StaticMeta10SetHandlerEjPFvPvE
   fun:_ZN7rocksdb14ThreadLocalPtrC1EPFvPvE
   fun:_ZN7rocksdb16ColumnFamilyDataC1EjRKNSt7__cxx1112basic_stringIcSt11char_traitsIcESaIcEEEPNS_7VersionEPNS_5CacheEPNS_18WriteBufferManagerERKNS_19ColumnFamilyOptionsERKNS_18ImmutableDBOptionsERKNS_11FileOptionsEPNS_15ColumnFamilySetEPNS_16BlockCacheTracerERKSt10shared_ptrINS_8IOTracerEES8_
   fun:_ZN7rocksdb15ColumnFamilySetC1ERKNSt7__cxx1112basic_stringIcSt11char_traitsIcESaIcEEEPKNS_18ImmutableDBOptionsERKNS_11FileOptionsEPNS_5CacheEPNS_18WriteBufferManagerEPNS_15WriteControllerEPNS_16BlockCacheTracerERKSt10shared_ptrINS_8IOTracerEES8_
   fun:_ZN7rocksdb10VersionSetC1ERKNSt7__cxx1112basic_stringIcSt11char_traitsIcESaIcEEEPKNS_18ImmutableDBOptionsERKNS_11FileOptionsEPNS_5CacheEPNS_18WriteBufferManagerEPNS_15WriteControllerEPNS_16BlockCacheTracerERKSt10shared_ptrINS_8IOTracerEES8_
   fun:_ZN7rocksdb6DBImplC1ERKNS_9DBOptionsERKNSt7__cxx1112basic_stringIcSt11char_traitsIcESaIcEEEbbb
   fun:_ZN7rocksdb6DBImpl4OpenERKNS_9DBOptionsERKNSt7__cxx1112basic_stringIcSt11char_traitsIcESaIcEEERKSt6vectorINS_22ColumnFamilyDescriptorESaISD_EEPSC_IPNS_18ColumnFamilyHandleESaISJ_EEPPNS_2DBEbb
   fun:_ZN7rocksdb2DB4OpenERKNS_9DBOptionsERKNSt7__cxx1112basic_stringIcSt11char_traitsIcESaIcEEERKSt6vectorINS_22ColumnFamilyDescriptorESaISD_EEPSC_IPNS_18ColumnFamilyHandleESaISJ_EEPPS0_
   fun:_ZN7rocksdb2DB4OpenERKNS_7OptionsERKNSt7__cxx1112basic_stringIcSt11char_traitsIcESaIcEEEPPS0_
   fun:rocksdb_open
}
{
   <insert_a_suppression_name_here>
   Memcheck:Leak
   match-leak-kinds: reachable
   fun:_Znwm
   fun:_ZN7rocksdb12_GLOBAL__N_125CreateThreadStatusUpdaterEv
   fun:_ZN7rocksdb12_GLOBAL__N_18PosixEnvC1Ev
   fun:_ZN7rocksdb3Env7DefaultEv
   fun:_ZN7rocksdb9DBOptionsC1Ev
   fun:_ZN7rocksdb7OptionsC1Ev
   fun:_ZN7rocksdb18ImmutableCFOptionsC1Ev
   fun:_Z41__static_initialization_and_destruction_0ii
   fun:_GLOBAL__sub_I_cf_options.cc
   fun:__libc_csu_init
   fun:(below main)
}
{
   <insert_a_suppression_name_here>
   Memcheck:Leak
   match-leak-kinds: reachable
   fun:_Znwm
   fun:_ZN7rocksdb14ThreadLocalPtr8InstanceEv
   fun:_ZN7rocksdb14ThreadLocalPtr14InitSingletonsEv
   fun:_ZN7rocksdb3Env7DefaultEv
   fun:_ZN7rocksdb9DBOptionsC1Ev
   fun:_ZN7rocksdb7OptionsC1Ev
   fun:_ZN7rocksdb18ImmutableCFOptionsC1Ev
   fun:_Z41__static_initialization_and_destruction_0ii
   fun:_GLOBAL__sub_I_cf_options.cc
   fun:__libc_csu_init
   fun:(below main)
}
{
   <insert_a_suppression_name_here>
   Memcheck:Leak
   match-leak-kinds: reachable
   fun:_Znwm
   fun:_ZN7rocksdb24CacheEntryStatsCollectorINS_13InternalStats19CacheEntryRoleStatsEE9GetSharedEPNS_5CacheEPNS_11SystemClockEPSt10shared_ptrIS3_E
   fun:_ZN7rocksdb13InternalStatsC1EiPNS_11SystemClockEPNS_16ColumnFamilyDataE
   fun:_ZN7rocksdb16ColumnFamilyDataC1EjRKNSt7__cxx1112basic_stringIcSt11char_traitsIcESaIcEEEPNS_7VersionEPNS_5CacheEPNS_18WriteBufferManagerERKNS_19ColumnFamilyOptionsERKNS_18ImmutableDBOptionsERKNS_11FileOptionsEPNS_15ColumnFamilySetEPNS_16BlockCacheTracerERKSt10shared_ptrINS_8IOTracerEES8_
   fun:_ZN7rocksdb15ColumnFamilySet18CreateColumnFamilyERKNSt7__cxx1112basic_stringIcSt11char_traitsIcESaIcEEEjPNS_7VersionERKNS_19ColumnFamilyOptionsE
   fun:_ZN7rocksdb10VersionSet18CreateColumnFamilyERKNS_19ColumnFamilyOptionsEPKNS_11VersionEditE
   fun:_ZN7rocksdb18VersionEditHandler15CreateCfAndInitERKNS_19ColumnFamilyOptionsERKNS_11VersionEditE
   fun:_ZN7rocksdb18VersionEditHandler10InitializeEv
   fun:_ZN7rocksdb22VersionEditHandlerBase7IterateERNS_3log6ReaderEPNS_6StatusE
   fun:_ZN7rocksdb10VersionSet7RecoverERKSt6vectorINS_22ColumnFamilyDescriptorESaIS2_EEbPNSt7__cxx1112basic_stringIcSt11char_traitsIcESaIcEEE
   fun:_ZN7rocksdb6DBImpl7RecoverERKSt6vectorINS_22ColumnFamilyDescriptorESaIS2_EEbbbPm
   fun:_ZN7rocksdb6DBImpl4OpenERKNS_9DBOptionsERKNSt7__cxx1112basic_stringIcSt11char_traitsIcESaIcEEERKSt6vectorINS_22ColumnFamilyDescriptorESaISD_EEPSC_IPNS_18ColumnFamilyHandleESaISJ_EEPPNS_2DBEbb
   fun:_ZN7rocksdb2DB4OpenERKNS_9DBOptionsERKNSt7__cxx1112basic_stringIcSt11char_traitsIcESaIcEEERKSt6vectorINS_22ColumnFamilyDescriptorESaISD_EEPSC_IPNS_18ColumnFamilyHandleESaISJ_EEPPS0_
   fun:_ZN7rocksdb2DB4OpenERKNS_7OptionsERKNSt7__cxx1112basic_stringIcSt11char_traitsIcESaIcEEEPPS0_
   fun:rocksdb_open
   fun:tsdbOpenRocksCache
   fun:tsdbOpenCache
   fun:tsdbOpen
   fun:vnodeOpen
   fun:vmOpenVnodeInThread
}
